; Function Attrs: mustprogress uwtable
define internal noundef range(i32 -2147483647, -2147483648) i32 @_ZL7db_infoP9lua_State(ptr noundef %0) #0 {
  %2 = alloca %struct.lua_Debug, align 8
  %3 = alloca [26 x i8], align 16
  %4 = tail call noundef i32 @_Z8lua_typeP9lua_Statei(ptr noundef %0, i32 noundef 1)
  %.not79 = icmp eq i32 %4, 9
  br i1 %.not79, label %_ZL9getthreadP9lua_StatePi.exit, label %_ZL9getthreadP9lua_StatePi.exit.thread.thread

_ZL9getthreadP9lua_StatePi.exit:                  ; preds = %1
  %5 = tail call noundef ptr @_Z12lua_tothreadP9lua_Statei(ptr noundef %0, i32 noundef 1)
  %.not = icmp eq ptr %0, %5
  br i1 %.not, label %_ZL9getthreadP9lua_StatePi.exit.thread, label %6

6:                                                ; preds = %_ZL9getthreadP9lua_StatePi.exit
  tail call void @_Z17lua_rawcheckstackP9lua_Statei(ptr noundef %5, i32 noundef 1)
  %7 = tail call noundef i32 @_Z10lua_gettopP9lua_State(ptr noundef %5)
  br label %_ZL9getthreadP9lua_StatePi.exit.thread

_ZL9getthreadP9lua_StatePi.exit.thread:           ; preds = %6, %_ZL9getthreadP9lua_StatePi.exit
  %.053 = phi i32 [ %7, %6 ], [ 0, %_ZL9getthreadP9lua_StatePi.exit ]
  %8 = tail call noundef i32 @_Z12lua_isnumberP9lua_Statei(ptr noundef %0, i32 noundef 2)
  %.not61 = icmp eq i32 %8, 0
  br i1 %.not61, label %20, label %10

_ZL9getthreadP9lua_StatePi.exit.thread.thread:    ; preds = %1
  %9 = tail call noundef i32 @_Z12lua_isnumberP9lua_Statei(ptr noundef %0, i32 noundef 1)
  %.not6194 = icmp eq i32 %9, 0
  br i1 %.not6194, label %.thread, label %10

10:                                               ; preds = %_ZL9getthreadP9lua_StatePi.exit.thread.thread, %_ZL9getthreadP9lua_StatePi.exit.thread
  %11 = phi i32 [ 1, %_ZL9getthreadP9lua_StatePi.exit.thread.thread ], [ 2, %_ZL9getthreadP9lua_StatePi.exit.thread ]
  %.053105 = phi i32 [ 0, %_ZL9getthreadP9lua_StatePi.exit.thread.thread ], [ %.053, %_ZL9getthreadP9lua_StatePi.exit.thread ]
  %.07276102 = phi i32 [ 0, %_ZL9getthreadP9lua_StatePi.exit.thread.thread ], [ 1, %_ZL9getthreadP9lua_StatePi.exit.thread ]
  %.0.i7799 = phi ptr [ %0, %_ZL9getthreadP9lua_StatePi.exit.thread.thread ], [ %5, %_ZL9getthreadP9lua_StatePi.exit.thread ]
  %.not7896 = phi i1 [ true, %_ZL9getthreadP9lua_StatePi.exit.thread.thread ], [ %.not, %_ZL9getthreadP9lua_StatePi.exit.thread ]
  %12 = tail call noundef i32 @_Z14lua_tointegerxP9lua_StateiPi(ptr noundef %0, i32 noundef %11, ptr noundef null)
  %13 = icmp sgt i32 %12, -1
  br i1 %13, label %22, label %14

14:                                               ; preds = %10
  tail call void @_Z14luaL_argerrorLP9lua_StateiPKc(ptr noundef %0, i32 noundef %11, ptr noundef nonnull @.str.3) #6
  unreachable

.thread:                                          ; preds = %_ZL9getthreadP9lua_StatePi.exit.thread.thread
  %15 = tail call noundef i32 @_Z8lua_typeP9lua_Statei(ptr noundef %0, i32 noundef 1)
  %16 = icmp eq i32 %15, 7
  br i1 %16, label %17, label %20

17:                                               ; preds = %.thread
  %18 = tail call noundef i32 @_Z10lua_gettopP9lua_State(ptr noundef %0)
  %19 = sub nsw i32 0, %18
  br label %22

20:                                               ; preds = %_ZL9getthreadP9lua_StatePi.exit.thread, %.thread
  %21 = phi i32 [ 1, %.thread ], [ 2, %_ZL9getthreadP9lua_StatePi.exit.thread ]
  tail call void @_Z14luaL_argerrorLP9lua_StateiPKc(ptr noundef %0, i32 noundef %21, ptr noundef nonnull @.str.4) #6
  unreachable

22:                                               ; preds = %10, %17
  %.053104 = phi i32 [ %.053105, %10 ], [ 0, %17 ]
  %.07276101 = phi i32 [ %.07276102, %10 ], [ 0, %17 ]
  %.0.i7798 = phi ptr [ %.0.i7799, %10 ], [ %0, %17 ]
  %.not7895 = phi i1 [ %.not7896, %10 ], [ true, %17 ]
  %.052 = phi i32 [ %12, %10 ], [ %19, %17 ]
  %23 = or disjoint i32 %.07276101, 2
  %24 = tail call noundef ptr @_Z17luaL_checklstringP9lua_StateiPm(ptr noundef %0, i32 noundef %23, ptr noundef null)
  call void @llvm.lifetime.start.p0(i64 312, ptr nonnull %2) #7
  %25 = call noundef i32 @_Z11lua_getinfoP9lua_StateiPKcP9lua_Debug(ptr noundef %.0.i7798, i32 noundef %.052, ptr noundef %24, ptr noundef nonnull %2)
  %.not62 = icmp eq i32 %25, 0
  br i1 %.not62, label %93, label %26

26:                                               ; preds = %22
  call void @llvm.lifetime.start.p0(i64 26, ptr nonnull %3) #7
  call void @llvm.memset.p0.i64(ptr noundef nonnull align 16 dereferenceable(26) %3, i8 0, i64 26, i1 false)
  %27 = load i8, ptr %24, align 1, !tbaa !4
  %.not6382 = icmp eq i8 %27, 0
  br i1 %.not6382, label %._crit_edge, label %.lr.ph

.lr.ph:                                           ; preds = %26
  %28 = getelementptr inbounds nuw i8, ptr %2, i64 41
  %29 = getelementptr inbounds nuw i8, ptr %2, i64 42
  %30 = getelementptr inbounds nuw i8, ptr %2, i64 36
  %31 = getelementptr inbounds nuw i8, ptr %2, i64 24
  br i1 %.not7895, label %.lr.ph.split.us, label %.lr.ph.split

.lr.ph.split.us:                                  ; preds = %.lr.ph, %57
  %32 = phi i8 [ %60, %57 ], [ %27, %.lr.ph ]
  %.084.us = phi ptr [ %59, %57 ], [ %24, %.lr.ph ]
  %.05083.us = phi i32 [ %58, %57 ], [ 0, %.lr.ph ]
  %33 = sext i8 %32 to i32
  %34 = add nsw i32 %33, -97
  %35 = icmp ult i32 %34, 26
  br i1 %35, label %36, label %42

36:                                               ; preds = %.lr.ph.split.us
  %37 = zext nneg i32 %34 to i64
  %38 = getelementptr inbounds nuw [26 x i8], ptr %3, i64 0, i64 %37
  %39 = load i8, ptr %38, align 1, !tbaa !7, !range !9, !noundef !10
  %40 = trunc nuw i8 %39 to i1
  br i1 %40, label %.split.us, label %41

41:                                               ; preds = %36
  store i8 1, ptr %38, align 1, !tbaa !7
  br label %42

42:                                               ; preds = %41, %.lr.ph.split.us
  switch i8 %32, label %.split86.us [
    i8 115, label %55
    i8 108, label %53
    i8 110, label %50
    i8 102, label %48
    i8 97, label %43
  ]

43:                                               ; preds = %42
  %44 = load i8, ptr %28, align 1, !tbaa !11
  %45 = zext i8 %44 to i32
  call void @_Z15lua_pushintegerP9lua_Statei(ptr noundef %0, i32 noundef %45)
  %46 = load i8, ptr %29, align 2, !tbaa !16
  %47 = sext i8 %46 to i32
  call void @_Z15lua_pushbooleanP9lua_Statei(ptr noundef %0, i32 noundef %47)
  br label %57

48:                                               ; preds = %42
  %49 = xor i32 %.05083.us, -1
  call void @_Z13lua_pushvalueP9lua_Statei(ptr noundef %0, i32 noundef %49)
  br label %57

50:                                               ; preds = %42
  %51 = load ptr, ptr %2, align 8, !tbaa !17
  %.not64.us = icmp eq ptr %51, null
  %52 = select i1 %.not64.us, ptr @.str.6, ptr %51
  call void @_Z14lua_pushstringP9lua_StatePKc(ptr noundef %0, ptr noundef nonnull %52)
  br label %57

53:                                               ; preds = %42
  %54 = load i32, ptr %30, align 4, !tbaa !18
  call void @_Z15lua_pushintegerP9lua_Statei(ptr noundef %0, i32 noundef %54)
  br label %57

55:                                               ; preds = %42
  %56 = load ptr, ptr %31, align 8, !tbaa !19
  call void @_Z14lua_pushstringP9lua_StatePKc(ptr noundef %0, ptr noundef %56)
  br label %57

57:                                               ; preds = %55, %53, %50, %48, %43
  %.sink = phi i32 [ 1, %55 ], [ 1, %53 ], [ 1, %50 ], [ 1, %48 ], [ 2, %43 ]
  %58 = add nuw nsw i32 %.05083.us, %.sink
  %59 = getelementptr inbounds nuw i8, ptr %.084.us, i64 1
  %60 = load i8, ptr %59, align 1, !tbaa !4
  %.not63.us = icmp eq i8 %60, 0
  br i1 %.not63.us, label %._crit_edge, label %.lr.ph.split.us, !llvm.loop !20

._crit_edge:                                      ; preds = %89, %57, %26
  %.050.lcssa = phi i32 [ 0, %26 ], [ %58, %57 ], [ %90, %89 ]
  call void @llvm.lifetime.end.p0(i64 26, ptr nonnull %3) #7
  br label %93

.lr.ph.split:                                     ; preds = %.lr.ph, %89
  %61 = phi i8 [ %92, %89 ], [ %27, %.lr.ph ]
  %.084 = phi ptr [ %91, %89 ], [ %24, %.lr.ph ]
  %.05083 = phi i32 [ %90, %89 ], [ 0, %.lr.ph ]
  %62 = sext i8 %61 to i32
  %63 = add nsw i32 %62, -97
  %64 = icmp ult i32 %63, 26
  br i1 %64, label %65, label %73

65:                                               ; preds = %.lr.ph.split
  %66 = zext nneg i32 %63 to i64
  %67 = getelementptr inbounds nuw [26 x i8], ptr %3, i64 0, i64 %66
  %68 = load i8, ptr %67, align 1, !tbaa !7, !range !9, !noundef !10
  %69 = trunc nuw i8 %68 to i1
  br i1 %69, label %.split.us, label %72

.split.us:                                        ; preds = %65, %36
  br i1 %.not7895, label %71, label %70

70:                                               ; preds = %.split.us
  call void @_Z10lua_settopP9lua_Statei(ptr noundef %.0.i7798, i32 noundef %.053104)
  br label %71

71:                                               ; preds = %70, %.split.us
  call void @_Z14luaL_argerrorLP9lua_StateiPKc(ptr noundef %0, i32 noundef %23, ptr noundef nonnull @.str.5) #6
  unreachable

72:                                               ; preds = %65
  store i8 1, ptr %67, align 1, !tbaa !7
  br label %73

73:                                               ; preds = %72, %.lr.ph.split
  switch i8 %61, label %.split86.us [
    i8 115, label %74
    i8 108, label %76
    i8 110, label %78
    i8 102, label %81
    i8 97, label %82
  ]

74:                                               ; preds = %73
  %75 = load ptr, ptr %31, align 8, !tbaa !19
  call void @_Z14lua_pushstringP9lua_StatePKc(ptr noundef %0, ptr noundef %75)
  br label %89

76:                                               ; preds = %73
  %77 = load i32, ptr %30, align 4, !tbaa !18
  call void @_Z15lua_pushintegerP9lua_Statei(ptr noundef %0, i32 noundef %77)
  br label %89

78:                                               ; preds = %73
  %79 = load ptr, ptr %2, align 8, !tbaa !17
  %.not64 = icmp eq ptr %79, null
  %80 = select i1 %.not64, ptr @.str.6, ptr %79
  call void @_Z14lua_pushstringP9lua_StatePKc(ptr noundef %0, ptr noundef nonnull %80)
  br label %89

81:                                               ; preds = %73
  call void @_Z9lua_xmoveP9lua_StateS0_i(ptr noundef %.0.i7798, ptr noundef %0, i32 noundef 1)
  br label %89

82:                                               ; preds = %73
  %83 = load i8, ptr %28, align 1, !tbaa !11
  %84 = zext i8 %83 to i32
  call void @_Z15lua_pushintegerP9lua_Statei(ptr noundef %0, i32 noundef %84)
  %85 = load i8, ptr %29, align 2, !tbaa !16
  %86 = sext i8 %85 to i32
  call void @_Z15lua_pushbooleanP9lua_Statei(ptr noundef %0, i32 noundef %86)
  br label %89

.split86.us:                                      ; preds = %73, %42
  br i1 %.not7895, label %88, label %87

87:                                               ; preds = %.split86.us
  call void @_Z10lua_settopP9lua_Statei(ptr noundef %.0.i7798, i32 noundef %.053104)
  br label %88

88:                                               ; preds = %87, %.split86.us
  call void @_Z14luaL_argerrorLP9lua_StateiPKc(ptr noundef %0, i32 noundef %23, ptr noundef nonnull @.str.7) #6
  unreachable

89:                                               ; preds = %74, %76, %78, %81, %82
  %.sink118 = phi i32 [ 1, %74 ], [ 1, %76 ], [ 1, %78 ], [ 1, %81 ], [ 2, %82 ]
  %90 = add nuw nsw i32 %.05083, %.sink118
  %91 = getelementptr inbounds nuw i8, ptr %.084, i64 1
  %92 = load i8, ptr %91, align 1, !tbaa !4
  %.not63 = icmp eq i8 %92, 0
  br i1 %.not63, label %._crit_edge, label %.lr.ph.split, !llvm.loop !20

93:                                               ; preds = %22, %._crit_edge
  %.051 = phi i32 [ %.050.lcssa, %._crit_edge ], [ 0, %22 ]
  call void @llvm.lifetime.end.p0(i64 312, ptr nonnull %2) #7
  ret i32 %.051
}